; Function Attrs: mustprogress nofree norecurse nosync nounwind memory(read, argmem: readwrite, inaccessiblemem: none) uwtable
define void @_ZN3gmx9BiasState21resetLocalUpdateRangeERKNS_8BiasGridE(ptr noundef nonnull align 8 captures(none) dereferenceable(240) %0, ptr noundef nonnull readonly align 8 captures(none) dereferenceable(48) %1) local_unnamed_addr #0 align 2 {
  %3 = getelementptr inbounds nuw i8, ptr %1, i64 24
  %4 = getelementptr inbounds nuw i8, ptr %1, i64 32
  %5 = load ptr, ptr %4, align 8, !tbaa !150
  %6 = load ptr, ptr %3, align 8, !tbaa !153
  %7 = ptrtoint ptr %5 to i64
  %8 = ptrtoint ptr %6 to i64
  %9 = sub i64 %7, %8
  %10 = sdiv exact i64 %9, 48
  %11 = trunc i64 %10 to i32
  %12 = icmp sgt i32 %11, 0
  br i1 %12, label %.lr.ph, label %._crit_edge

.lr.ph:                                           ; preds = %2
  %13 = getelementptr inbounds nuw i8, ptr %0, i64 32
  %14 = load i32, ptr %13, align 8, !tbaa !167
  %15 = sext i32 %14 to i64
  %16 = load ptr, ptr %1, align 8, !tbaa !23
  %17 = getelementptr inbounds nuw i8, ptr %0, i64 152
  %18 = getelementptr inbounds nuw i8, ptr %0, i64 168
  %wide.trip.count = and i64 %10, 2147483647
  br label %19

._crit_edge:                                      ; preds = %19, %2
  ret void

19:                                               ; preds = %.lr.ph, %19
  %indvars.iv = phi i64 [ 0, %.lr.ph ], [ %indvars.iv.next, %19 ]
  %20 = getelementptr inbounds nuw %"struct.gmx::GridPoint", ptr %16, i64 %15, i32 1, i64 %indvars.iv
  %21 = load i32, ptr %20, align 4, !tbaa !30
  %22 = getelementptr inbounds nuw [4 x i32], ptr %17, i64 0, i64 %indvars.iv
  store i32 %21, ptr %22, align 4, !tbaa !30
  %23 = getelementptr inbounds nuw [4 x i32], ptr %18, i64 0, i64 %indvars.iv
  store i32 %21, ptr %23, align 4, !tbaa !30
  %indvars.iv.next = add nuw nsw i64 %indvars.iv, 1
  %exitcond.not = icmp eq i64 %indvars.iv.next, %wide.trip.count
  br i1 %exitcond.not, label %._crit_edge, label %19, !llvm.loop !186
}